; Function Attrs: mustprogress uwtable
define hidden void @_ZN4cvc58internal6theory24TheoryEngineModelBuilder16postProcessModelEbPNS1_11TheoryModelE(ptr noundef nonnull align 8 dereferenceable(120) %this, i1 noundef zeroext %incomplete, ptr noundef %m) local_unnamed_addr #3 align 2 {
entry:
  br i1 %incomplete, label %if.end4, label %if.end

if.end:                                           ; preds = %entry
  %call = tail call noundef nonnull align 8 dereferenceable(392) ptr @_ZNK4cvc58internal6EnvObj7optionsEv(ptr noundef nonnull align 8 dereferenceable(16) %this)
  %smt = getelementptr inbounds i8, ptr %call, i64 352
  %0 = load ptr, ptr %smt, align 8
  %debugCheckModels = getelementptr inbounds i8, ptr %0, i64 29
  %1 = load i8, ptr %debugCheckModels, align 1
  %2 = and i8 %1, 1
  %tobool2.not = icmp eq i8 %2, 0
  br i1 %tobool2.not, label %if.end4, label %if.then3

if.then3:                                         ; preds = %if.end
  tail call void @_ZN4cvc58internal6theory24TheoryEngineModelBuilder15debugCheckModelEPNS1_11TheoryModelE(ptr noundef nonnull align 8 dereferenceable(120) %this, ptr noundef %m)
  br label %if.end4

if.end4:                                          ; preds = %entry, %if.then3, %if.end
  ret void
}